target datalayout = "e-m:e-p270:32:32-p271:32:32-p272:64:64-i64:64-i128:128-f80:128-n8:16:32:64-S128"
target triple = "x86_64-pc-linux-gnu"

%"struct.cv::softfloat" = type { i32 }

; Function Attrs: mustprogress nounwind uwtable
define internal void @_ZN2cvL10raiseFlagsEh(i8 noundef zeroext %0) #1 {
  %2 = alloca i8, align 1
  store i8 %0, ptr %2, align 1
  ret void
}

; Function Attrs: mustprogress nounwind uwtable
define internal noundef zeroext i1 @_ZN2cvL6f32_leENS_9softfloatES0_(ptr noundef %0, ptr noundef %1) #1 {
  %3 = alloca i1, align 1
  %4 = alloca ptr, align 8
  %5 = alloca ptr, align 8
  %6 = alloca i64, align 8
  %7 = alloca i64, align 8
  %8 = alloca i8, align 1
  %9 = alloca i8, align 1
  store ptr %0, ptr %4, align 8
  store ptr %1, ptr %5, align 8
  %10 = getelementptr inbounds %"struct.cv::softfloat", ptr %0, i32 0, i32 0
  %11 = load i32, ptr %10, align 4
  %12 = zext i32 %11 to i64
  store i64 %12, ptr %6, align 8
  %13 = getelementptr inbounds %"struct.cv::softfloat", ptr %1, i32 0, i32 0
  %14 = load i32, ptr %13, align 4
  %15 = zext i32 %14 to i64
  store i64 %15, ptr %7, align 8
  %16 = load i64, ptr %6, align 8
  %17 = xor i64 %16, -1
  %18 = and i64 %17, 2139095040
  %19 = icmp eq i64 %18, 0
  br i1 %19, label %20, label %24

20:                                               ; preds = %2
  %21 = load i64, ptr %6, align 8
  %22 = and i64 %21, 8388607
  %23 = icmp ne i64 %22, 0
  br i1 %23, label %33, label %24

24:                                               ; preds = %20, %2
  %25 = load i64, ptr %7, align 8
  %26 = xor i64 %25, -1
  %27 = and i64 %26, 2139095040
  %28 = icmp eq i64 %27, 0
  br i1 %28, label %29, label %34

29:                                               ; preds = %24
  %30 = load i64, ptr %7, align 8
  %31 = and i64 %30, 8388607
  %32 = icmp ne i64 %31, 0
  br i1 %32, label %33, label %34

33:                                               ; preds = %29, %20
  call void @_ZN2cvL10raiseFlagsEh(i8 noundef zeroext 16)
  store i1 false, ptr %3, align 1
  br label %83

34:                                               ; preds = %29, %24
  %35 = load i64, ptr %6, align 8
  %36 = trunc i64 %35 to i32
  %37 = lshr i32 %36, 31
  %38 = icmp ne i32 %37, 0
  %39 = zext i1 %38 to i8
  store i8 %39, ptr %8, align 1
  %40 = load i64, ptr %7, align 8
  %41 = trunc i64 %40 to i32
  %42 = lshr i32 %41, 31
  %43 = icmp ne i32 %42, 0
  %44 = zext i1 %43 to i8
  store i8 %44, ptr %9, align 1
  %45 = load i8, ptr %8, align 1
  %46 = trunc i8 %45 to i1
  %47 = zext i1 %46 to i32
  %48 = load i8, ptr %9, align 1
  %49 = trunc i8 %48 to i1
  %50 = zext i1 %49 to i32
  %51 = icmp ne i32 %47, %50
  br i1 %51, label %52, label %65

52:                                               ; preds = %34
  %53 = load i8, ptr %8, align 1
  %54 = trunc i8 %53 to i1
  br i1 %54, label %63, label %55

55:                                               ; preds = %52
  %56 = load i64, ptr %6, align 8
  %57 = load i64, ptr %7, align 8
  %58 = or i64 %56, %57
  %59 = shl i64 %58, 1
  %60 = trunc i64 %59 to i32
  %61 = icmp ne i32 %60, 0
  %62 = xor i1 %61, true
  br label %63

63:                                               ; preds = %55, %52
  %64 = phi i1 [ true, %52 ], [ %62, %55 ]
  br label %81

65:                                               ; preds = %34
  %66 = load i64, ptr %6, align 8
  %67 = load i64, ptr %7, align 8
  %68 = icmp eq i64 %66, %67
  br i1 %68, label %79, label %69

69:                                               ; preds = %65
  %70 = load i8, ptr %8, align 1
  %71 = trunc i8 %70 to i1
  %72 = zext i1 %71 to i32
  %73 = load i64, ptr %6, align 8
  %74 = load i64, ptr %7, align 8
  %75 = icmp ult i64 %73, %74
  %76 = zext i1 %75 to i32
  %77 = xor i32 %72, %76
  %78 = icmp ne i32 %77, 0
  br label %79

79:                                               ; preds = %69, %65
  %80 = phi i1 [ true, %65 ], [ %78, %69 ]
  br label %81

81:                                               ; preds = %79, %63
  %82 = phi i1 [ %64, %63 ], [ %80, %79 ]
  store i1 %82, ptr %3, align 1
  br label %83

83:                                               ; preds = %81, %33
  %84 = load i1, ptr %3, align 1
  ret i1 %84
}

; Function Attrs: mustprogress nounwind uwtable
define linkonce_odr hidden void @_ZN2cv9softfloatC2ERKS0_(ptr noundef nonnull align 4 dereferenceable(4) %0, ptr noundef nonnull align 4 dereferenceable(4) %1) unnamed_addr #1 comdat align 2 {
  %3 = alloca ptr, align 8
  %4 = alloca ptr, align 8
  store ptr %0, ptr %3, align 8
  store ptr %1, ptr %4, align 8
  %5 = load ptr, ptr %3, align 8
  %6 = load ptr, ptr %4, align 8
  %7 = getelementptr inbounds %"struct.cv::softfloat", ptr %6, i32 0, i32 0
  %8 = load i32, ptr %7, align 4
  %9 = getelementptr inbounds %"struct.cv::softfloat", ptr %5, i32 0, i32 0
  store i32 %8, ptr %9, align 4
  ret void
}

; Function Attrs: mustprogress uwtable
define noundef zeroext i1 @_ZNK2cv9softfloatleERKS0_(ptr noundef nonnull align 4 dereferenceable(4) %0, ptr noundef nonnull align 4 dereferenceable(4) %1) #0 align 2 {
  %3 = alloca ptr, align 8
  %4 = alloca ptr, align 8
  %5 = alloca %"struct.cv::softfloat", align 4
  %6 = alloca %"struct.cv::softfloat", align 4
  store ptr %0, ptr %3, align 8
  store ptr %1, ptr %4, align 8
  %7 = load ptr, ptr %3, align 8
  call void @_ZN2cv9softfloatC2ERKS0_(ptr noundef nonnull align 4 dereferenceable(4) %5, ptr noundef nonnull align 4 dereferenceable(4) %7)
  %8 = load ptr, ptr %4, align 8
  call void @_ZN2cv9softfloatC2ERKS0_(ptr noundef nonnull align 4 dereferenceable(4) %6, ptr noundef nonnull align 4 dereferenceable(4) %8)
  %9 = call noundef zeroext i1 @_ZN2cvL6f32_leENS_9softfloatES0_(ptr noundef %5, ptr noundef %6)
  ret i1 %9
}