; Function Attrs: mustprogress nofree norecurse nosync nounwind willreturn memory(argmem: read) uwtable
define noundef zeroext i1 @_ZNK2cv9softfloatleERKS0_(ptr nocapture noundef nonnull readonly align 4 dereferenceable(4) %0, ptr nocapture noundef nonnull readonly align 4 dereferenceable(4) %1) local_unnamed_addr #4 align 2 {
  %3 = load i32, ptr %0, align 4
  %4 = load i32, ptr %1, align 4
  %5 = zext i32 %3 to i64
  %6 = and i64 %5, 2139095040
  %7 = icmp ne i64 %6, 2139095040
  %8 = and i64 %5, 8388607
  %.not.i = icmp eq i64 %8, 0
  %or.cond.i = or i1 %7, %.not.i
  br i1 %or.cond.i, label %9, label %_ZN2cvL6f32_leENS_9softfloatES0_.exit

9:                                                ; preds = %2
  %10 = zext i32 %4 to i64
  %11 = and i64 %10, 2139095040
  %12 = icmp ne i64 %11, 2139095040
  %13 = and i64 %10, 8388607
  %.not19.i = icmp eq i64 %13, 0
  %or.cond23.i = or i1 %12, %.not19.i
  br i1 %or.cond23.i, label %14, label %_ZN2cvL6f32_leENS_9softfloatES0_.exit

14:                                               ; preds = %9
  %.not21.unshifted.i = xor i32 %4, %3
  %.not21.i = icmp sgt i32 %.not21.unshifted.i, -1
  br i1 %.not21.i, label %18, label %15

15:                                               ; preds = %14
  %16 = icmp slt i32 %3, 0
  br i1 %16, label %_ZN2cvL6f32_leENS_9softfloatES0_.exit, label %17

17:                                               ; preds = %15
  %.masked.i = and i32 %4, 2147483647
  %.mask.i = or i32 %.masked.i, %3
  %.not22.i = icmp eq i32 %.mask.i, 0
  br label %_ZN2cvL6f32_leENS_9softfloatES0_.exit

18:                                               ; preds = %14
  %19 = icmp eq i32 %3, %4
  br i1 %19, label %_ZN2cvL6f32_leENS_9softfloatES0_.exit, label %20

20:                                               ; preds = %18
  %21 = icmp ult i32 %3, %4
  %22 = icmp slt i32 %3, 0
  %23 = xor i1 %22, %21
  br label %_ZN2cvL6f32_leENS_9softfloatES0_.exit

_ZN2cvL6f32_leENS_9softfloatES0_.exit:            ; preds = %2, %9, %15, %17, %18, %20
  %.0.i = phi i1 [ true, %15 ], [ %.not22.i, %17 ], [ true, %18 ], [ %23, %20 ], [ false, %9 ], [ false, %2 ]
  ret i1 %.0.i
}